target datalayout = "e-m:e-p270:32:32-p271:32:32-p272:64:64-i64:64-i128:128-f80:128-n8:16:32:64-S128"
target triple = "x86_64-pc-linux-gnu"

%"class.glslang::TIntermTyped" = type { %class.TIntermNode, %"class.glslang::TType" }
%class.TIntermNode = type { ptr, %"struct.glslang::TSourceLoc" }
%"struct.glslang::TSourceLoc" = type { ptr, i32, i32, i32 }
%"class.glslang::TType" = type { ptr, i32, [4 x i8], %"class.glslang::TQualifier", ptr, %union.anon, ptr, ptr, %"struct.glslang::TSampler", ptr, ptr }
%"class.glslang::TQualifier" = type <{ ptr, i64, i8, [3 x i8], i32, i32, i64, i64, i8, i8, i8, i8, i8, [3 x i8], i32, i8, i8, i8, i8, i32, ptr, i8, i8, [6 x i8] }>
%union.anon = type { ptr }
%"struct.glslang::TSampler" = type { i32 }
%"class.glslang::TConstUnionArray" = type { ptr, ptr }
%"class.glslang::TIntermConstantUnion" = type <{ %"class.glslang::TIntermTyped", %"class.glslang::TConstUnionArray", i8, [7 x i8] }>

@_ZTVN7glslang16TConstUnionArrayE = linkonce_odr unnamed_addr constant { [4 x ptr] } { [4 x ptr] [ptr null, ptr null, ptr @_ZN7glslang16TConstUnionArrayD2Ev, ptr @_ZN7glslang16TConstUnionArrayD0Ev] }, comdat, align 8
@_ZTVN7glslang20TIntermConstantUnionE = external unnamed_addr constant { [52 x ptr] }, align 8

; Function Attrs: mustprogress nounwind uwtable
define linkonce_odr void @_ZN7glslang16TConstUnionArrayC2ERKS0_(ptr noundef nonnull align 8 dereferenceable(16) %0, ptr noundef nonnull align 8 dereferenceable(16) %1) unnamed_addr #0 comdat align 2 {
  %3 = alloca ptr, align 8
  %4 = alloca ptr, align 8
  store ptr %0, ptr %3, align 8
  store ptr %1, ptr %4, align 8
  %5 = load ptr, ptr %3, align 8
  store ptr getelementptr inbounds inrange(-16, 16) ({ [4 x ptr] }, ptr @_ZTVN7glslang16TConstUnionArrayE, i32 0, i32 0, i32 2), ptr %5, align 8
  %6 = getelementptr inbounds %"class.glslang::TConstUnionArray", ptr %5, i32 0, i32 1
  %7 = load ptr, ptr %4, align 8
  %8 = getelementptr inbounds %"class.glslang::TConstUnionArray", ptr %7, i32 0, i32 1
  %9 = load ptr, ptr %8, align 8
  store ptr %9, ptr %6, align 8
  ret void
}

; Function Attrs: mustprogress nounwind uwtable
define linkonce_odr void @_ZN7glslang20TIntermConstantUnion10setLiteralEv(ptr noundef nonnull align 8 dereferenceable(201) %0) #0 comdat align 2 {
  %2 = alloca ptr, align 8
  store ptr %0, ptr %2, align 8
  %3 = load ptr, ptr %2, align 8
  %4 = getelementptr inbounds %"class.glslang::TIntermConstantUnion", ptr %3, i32 0, i32 2
  store i8 1, ptr %4, align 8
  ret void
}

; Function Attrs: mustprogress nounwind uwtable
define linkonce_odr void @_ZN7glslang20TIntermConstantUnionC2ERKNS_16TConstUnionArrayERKNS_5TTypeE(ptr noundef nonnull align 8 dereferenceable(201) %0, ptr noundef nonnull align 8 dereferenceable(16) %1, ptr noundef nonnull align 8 dereferenceable(152) %2) unnamed_addr #0 comdat align 2 {
  %4 = alloca ptr, align 8
  %5 = alloca ptr, align 8
  %6 = alloca ptr, align 8
  store ptr %0, ptr %4, align 8
  store ptr %1, ptr %5, align 8
  store ptr %2, ptr %6, align 8
  %7 = load ptr, ptr %4, align 8
  %8 = load ptr, ptr %6, align 8
  call void @_ZN7glslang12TIntermTypedC2ERKNS_5TTypeE(ptr noundef nonnull align 8 dereferenceable(184) %7, ptr noundef nonnull align 8 dereferenceable(152) %8)
  store ptr getelementptr inbounds inrange(-16, 400) ({ [52 x ptr] }, ptr @_ZTVN7glslang20TIntermConstantUnionE, i32 0, i32 0, i32 2), ptr %7, align 8
  %9 = getelementptr inbounds %"class.glslang::TIntermConstantUnion", ptr %7, i32 0, i32 1
  %10 = load ptr, ptr %5, align 8
  call void @_ZN7glslang16TConstUnionArrayC2ERKS0_(ptr noundef nonnull align 8 dereferenceable(16) %9, ptr noundef nonnull align 8 dereferenceable(16) %10) #10
  %11 = getelementptr inbounds %"class.glslang::TIntermConstantUnion", ptr %7, i32 0, i32 2
  store i8 0, ptr %11, align 8
  ret void
}

; Function Attrs: mustprogress nounwind uwtable
define linkonce_odr noundef ptr @_ZN11TIntermNodenwEm(i64 noundef %0) #0 comdat align 2 {
  %2 = alloca i64, align 8
  store i64 %0, ptr %2, align 8
  %3 = call noundef nonnull align 8 dereferenceable(96) ptr @_ZN7glslang22GetThreadPoolAllocatorEv()
  %4 = load i64, ptr %2, align 8
  %5 = call noundef ptr @_ZN7glslang14TPoolAllocator8allocateEm(ptr noundef nonnull align 8 dereferenceable(96) %3, i64 noundef %4)
  ret ptr %5
}

; Function Attrs: mustprogress nounwind uwtable
define noundef ptr @_ZNK7glslang13TIntermediate16addConstantUnionERKNS_16TConstUnionArrayERKNS_5TTypeERKNS_10TSourceLocEb(ptr noundef nonnull align 8 dereferenceable(2024) %0, ptr noundef nonnull align 8 dereferenceable(16) %1, ptr noundef nonnull align 8 dereferenceable(152) %2, ptr noundef nonnull align 8 dereferenceable(24) %3, i1 noundef zeroext %4) #0 align 2 {
  %6 = alloca ptr, align 8
  %7 = alloca ptr, align 8
  %8 = alloca ptr, align 8
  %9 = alloca ptr, align 8
  %10 = alloca i8, align 1
  %11 = alloca ptr, align 8
  store ptr %0, ptr %6, align 8
  store ptr %1, ptr %7, align 8
  store ptr %2, ptr %8, align 8
  store ptr %3, ptr %9, align 8
  %12 = zext i1 %4 to i8
  store i8 %12, ptr %10, align 1
  %13 = call noundef ptr @_ZN11TIntermNodenwEm(i64 noundef 208)
  %14 = load ptr, ptr %7, align 8
  %15 = load ptr, ptr %8, align 8
  call void @_ZN7glslang20TIntermConstantUnionC2ERKNS_16TConstUnionArrayERKNS_5TTypeE(ptr noundef nonnull align 8 dereferenceable(201) %13, ptr noundef nonnull align 8 dereferenceable(16) %14, ptr noundef nonnull align 8 dereferenceable(152) %15)
  store ptr %13, ptr %11, align 8
  %16 = load ptr, ptr %11, align 8
  %17 = load ptr, ptr %16, align 8
  %18 = getelementptr inbounds ptr, ptr %17, i64 33
  %19 = load ptr, ptr %18, align 8
  %20 = call noundef nonnull align 8 dereferenceable(80) ptr %19(ptr noundef nonnull align 8 dereferenceable(184) %16)
  %21 = getelementptr inbounds %"class.glslang::TQualifier", ptr %20, i32 0, i32 1
  %22 = load i64, ptr %21, align 8
  %23 = and i64 %22, -128
  %24 = or i64 %23, 2
  store i64 %24, ptr %21, align 8
  %25 = load ptr, ptr %11, align 8
  %26 = load ptr, ptr %9, align 8
  %27 = load ptr, ptr %25, align 8
  %28 = getelementptr inbounds ptr, ptr %27, i64 1
  %29 = load ptr, ptr %28, align 8
  call void %29(ptr noundef nonnull align 8 dereferenceable(32) %25, ptr noundef nonnull align 8 dereferenceable(24) %26)
  %30 = load i8, ptr %10, align 1
  %31 = trunc i8 %30 to i1
  br i1 %31, label %32, label %34

32:                                               ; preds = %5
  %33 = load ptr, ptr %11, align 8
  call void @_ZN7glslang20TIntermConstantUnion10setLiteralEv(ptr noundef nonnull align 8 dereferenceable(201) %33)
  br label %34

34:                                               ; preds = %32, %5
  %35 = load ptr, ptr %11, align 8
  ret ptr %35
}