; Function Attrs: mustprogress nounwind uwtable
define noundef ptr @_ZNK7glslang13TIntermediate16addConstantUnionERKNS_16TConstUnionArrayERKNS_5TTypeERKNS_10TSourceLocEb(ptr nocapture noundef nonnull readnone align 8 dereferenceable(2024) %0, ptr nocapture noundef nonnull readonly align 8 dereferenceable(16) %1, ptr noundef nonnull align 8 dereferenceable(152) %2, ptr noundef nonnull align 8 dereferenceable(24) %3, i1 noundef zeroext %4) local_unnamed_addr #0 align 2 {
  %6 = tail call noundef nonnull align 8 dereferenceable(96) ptr @_ZN7glslang22GetThreadPoolAllocatorEv() #17
  %7 = tail call noundef ptr @_ZN7glslang14TPoolAllocator8allocateEm(ptr noundef nonnull align 8 dereferenceable(96) %6, i64 noundef 208) #17
  tail call void @_ZN7glslang12TIntermTypedC2ERKNS_5TTypeE(ptr noundef nonnull align 8 dereferenceable(184) %7, ptr noundef nonnull align 8 dereferenceable(152) %2)
  store ptr getelementptr inbounds inrange(-16, 400) (i8, ptr @_ZTVN7glslang20TIntermConstantUnionE, i64 16), ptr %7, align 8
  %8 = getelementptr inbounds i8, ptr %7, i64 184
  store ptr getelementptr inbounds inrange(-16, 16) (i8, ptr @_ZTVN7glslang16TConstUnionArrayE, i64 16), ptr %8, align 8
  %9 = getelementptr inbounds i8, ptr %7, i64 192
  %10 = getelementptr inbounds i8, ptr %1, i64 8
  %11 = load ptr, ptr %10, align 8
  store ptr %11, ptr %9, align 8
  %12 = getelementptr inbounds i8, ptr %7, i64 200
  store i8 0, ptr %12, align 8
  %13 = load ptr, ptr getelementptr inbounds inrange(-280, 136) (i8, ptr @_ZTVN7glslang20TIntermConstantUnionE, i64 280), align 8
  %14 = tail call noundef nonnull align 8 dereferenceable(80) ptr %13(ptr noundef nonnull align 8 dereferenceable(184) %7) #17
  %15 = getelementptr inbounds i8, ptr %14, i64 8
  %16 = load i64, ptr %15, align 8
  %17 = and i64 %16, -128
  %18 = or disjoint i64 %17, 2
  store i64 %18, ptr %15, align 8
  %19 = load ptr, ptr %7, align 8
  %20 = getelementptr inbounds i8, ptr %19, i64 8
  %21 = load ptr, ptr %20, align 8
  tail call void %21(ptr noundef nonnull align 8 dereferenceable(32) %7, ptr noundef nonnull align 8 dereferenceable(24) %3) #17
  br i1 %4, label %22, label %23

22:                                               ; preds = %5
  store i8 1, ptr %12, align 8
  br label %23

23:                                               ; preds = %22, %5
  ret ptr %7
}